target datalayout = "e-m:e-p270:32:32-p271:32:32-p272:64:64-i64:64-i128:128-f80:128-n8:16:32:64-S128"
target triple = "x86_64-pc-linux-gnu"

%struct.Curl_cfilter = type { ptr, ptr, ptr, ptr, i32, i8 }

; Function Attrs: nounwind uwtable
define dso_local void @Curl_conn_cf_insert_after(ptr noundef %0, ptr noundef %1) #0 {
  %3 = alloca ptr, align 8
  %4 = alloca ptr, align 8
  %5 = alloca ptr, align 8
  %6 = alloca ptr, align 8
  store ptr %0, ptr %3, align 8, !tbaa !4
  store ptr %1, ptr %4, align 8, !tbaa !4
  call void @llvm.lifetime.start.p0(i64 8, ptr %5) #5
  call void @llvm.lifetime.start.p0(i64 8, ptr %6) #5
  br label %7

7:                                                ; preds = %2
  br label %8

8:                                                ; preds = %7
  br label %9

9:                                                ; preds = %8
  br label %10

10:                                               ; preds = %9
  br label %11

11:                                               ; preds = %10
  br label %12

12:                                               ; preds = %11
  br label %13

13:                                               ; preds = %12
  br label %14

14:                                               ; preds = %13
  br label %15

15:                                               ; preds = %14
  %16 = load ptr, ptr %3, align 8, !tbaa !4
  %17 = getelementptr inbounds nuw %struct.Curl_cfilter, ptr %16, i32 0, i32 1
  %18 = load ptr, ptr %17, align 8, !tbaa !19
  store ptr %18, ptr %5, align 8, !tbaa !4
  %19 = load ptr, ptr %4, align 8, !tbaa !4
  %20 = load ptr, ptr %3, align 8, !tbaa !4
  %21 = getelementptr inbounds nuw %struct.Curl_cfilter, ptr %20, i32 0, i32 1
  store ptr %19, ptr %21, align 8, !tbaa !19
  br label %22

22:                                               ; preds = %38, %15
  %23 = load ptr, ptr %3, align 8, !tbaa !4
  %24 = getelementptr inbounds nuw %struct.Curl_cfilter, ptr %23, i32 0, i32 3
  %25 = load ptr, ptr %24, align 8, !tbaa !28
  %26 = load ptr, ptr %4, align 8, !tbaa !4
  %27 = getelementptr inbounds nuw %struct.Curl_cfilter, ptr %26, i32 0, i32 3
  store ptr %25, ptr %27, align 8, !tbaa !28
  %28 = load ptr, ptr %3, align 8, !tbaa !4
  %29 = getelementptr inbounds nuw %struct.Curl_cfilter, ptr %28, i32 0, i32 4
  %30 = load i32, ptr %29, align 8, !tbaa !139
  %31 = load ptr, ptr %4, align 8, !tbaa !4
  %32 = getelementptr inbounds nuw %struct.Curl_cfilter, ptr %31, i32 0, i32 4
  store i32 %30, ptr %32, align 8, !tbaa !139
  %33 = load ptr, ptr %4, align 8, !tbaa !4
  %34 = getelementptr inbounds nuw %struct.Curl_cfilter, ptr %33, i32 0, i32 1
  store ptr %34, ptr %6, align 8, !tbaa !66
  %35 = load ptr, ptr %4, align 8, !tbaa !4
  %36 = getelementptr inbounds nuw %struct.Curl_cfilter, ptr %35, i32 0, i32 1
  %37 = load ptr, ptr %36, align 8, !tbaa !19
  store ptr %37, ptr %4, align 8, !tbaa !4
  br label %38

38:                                               ; preds = %22
  %39 = load ptr, ptr %4, align 8, !tbaa !4
  %40 = icmp ne ptr %39, null
  br i1 %40, label %22, label %41, !llvm.loop !140

41:                                               ; preds = %38
  %42 = load ptr, ptr %5, align 8, !tbaa !4
  %43 = load ptr, ptr %6, align 8, !tbaa !66
  store ptr %42, ptr %43, align 8, !tbaa !4
  call void @llvm.lifetime.end.p0(i64 8, ptr %6) #5
  call void @llvm.lifetime.end.p0(i64 8, ptr %5) #5
  ret void
}