; Function Attrs: nofree norecurse nosync nounwind memory(readwrite, inaccessiblemem: none) uwtable
define dso_local void @Curl_conn_cf_insert_after(ptr noundef captures(none) %0, ptr noundef %1) local_unnamed_addr #5 {
  %3 = getelementptr inbounds nuw i8, ptr %0, i64 8
  %4 = load ptr, ptr %3, align 8, !tbaa !8
  store ptr %1, ptr %3, align 8, !tbaa !8
  %5 = getelementptr inbounds nuw i8, ptr %0, i64 24
  %6 = getelementptr inbounds nuw i8, ptr %0, i64 32
  %.pre = load ptr, ptr %5, align 8, !tbaa !19
  %.pre12 = load i32, ptr %6, align 8, !tbaa !125
  br label %7

7:                                                ; preds = %7, %2
  %.0 = phi ptr [ %1, %2 ], [ %11, %7 ]
  %8 = getelementptr inbounds nuw i8, ptr %.0, i64 24
  store ptr %.pre, ptr %8, align 8, !tbaa !19
  %9 = getelementptr inbounds nuw i8, ptr %.0, i64 32
  store i32 %.pre12, ptr %9, align 8, !tbaa !125
  %10 = getelementptr inbounds nuw i8, ptr %.0, i64 8
  %11 = load ptr, ptr %10, align 8, !tbaa !8
  %.not = icmp eq ptr %11, null
  br i1 %.not, label %12, label %7, !llvm.loop !126

12:                                               ; preds = %7
  %13 = getelementptr inbounds nuw i8, ptr %.0, i64 8
  store ptr %4, ptr %13, align 8, !tbaa !51
  ret void
}